; Function Attrs: mustprogress nofree norecurse nosync nounwind willreturn memory(argmem: read) uwtable
define range(i64 -9223372036854775807, -9223372036854775808) i64 @_ZN5arrowrmERKNS_14BasicDecimal64ES2_(ptr noundef nonnull readonly align 8 captures(none) dereferenceable(8) %0, ptr noundef nonnull readonly align 8 captures(none) dereferenceable(8) %1) local_unnamed_addr #7 {
  %3 = load i64, ptr %1, align 8, !tbaa !13
  %4 = icmp eq i64 %3, 0
  br i1 %4, label %_ZNK5arrow14BasicDecimal646DivideERKS0_PS0_S3_.exit, label %5

5:                                                ; preds = %2
  %6 = load i64, ptr %0, align 8, !tbaa !13
  %7 = srem i64 %6, %3
  br label %_ZNK5arrow14BasicDecimal646DivideERKS0_PS0_S3_.exit

_ZNK5arrow14BasicDecimal646DivideERKS0_PS0_S3_.exit: ; preds = %2, %5
  %.sroa.02.0 = phi i64 [ 0, %2 ], [ %7, %5 ]
  ret i64 %.sroa.02.0
}